ARM GAS  C:\Users\kuria\AppData\Local\Temp\ccaKePAj.s 			page 1


   1              		.syntax unified
   2              		.cpu cortex-m3
   3              		.fpu softvfp
   4              		.eabi_attribute 20, 1
   5              		.eabi_attribute 21, 1
   6              		.eabi_attribute 23, 3
   7              		.eabi_attribute 24, 1
   8              		.eabi_attribute 25, 1
   9              		.eabi_attribute 26, 1
  10              		.eabi_attribute 30, 1
  11              		.eabi_attribute 34, 1
  12              		.eabi_attribute 18, 4
  13              		.thumb
  14              		.syntax unified
  15              		.file	"main.c"
  16              		.text
  17              	.Ltext0:
  18              		.cfi_sections	.debug_frame
  19              		.section	.text.adc_task,"ax",%progbits
  20              		.align	2
  21              		.global	adc_task
  22              		.thumb
  23              		.thumb_func
  24              		.type	adc_task, %function
  25              	adc_task:
  26              	.LFB69:
  27              		.file 1 "main.c"
   1:main.c        **** /*
   2:main.c        ****  ============================================================================
   3:main.c        ****  Name        : FreeRTOS Project
   4:main.c        ****  Author      : Dr. Kurian Polachan
   5:main.c        ****  Description : Example project demonstrating mutual exclusion (mutex) in FreeRTOS.
   6:main.c        ****                Two concurrent tasks (UART and LED) share access to the UART port.
   7:main.c        ****                A mutex ensures that only one task can write to UART at a time,
   8:main.c        ****                preventing interleaved or corrupted output.
   9:main.c        **** 
  10:main.c        ****  Acknowledgment:
  11:main.c        ****  This code builds upon and makes use of the structure, conventions, and examples
  12:main.c        ****  from the open-source project:
  13:main.c        ****      https://github.com/Karthik23tala/Embedded-C-Lab-Book
  14:main.c        ****  maintained by Karthik T. and contributors.
  15:main.c        **** 
  16:main.c        ****  License     : For educational and research use. Attribution required.
  17:main.c        ****  ============================================================================
  18:main.c        **** */
  19:main.c        **** 
  20:main.c        **** #include <stdio.h>
  21:main.c        **** #include <stdlib.h>
  22:main.c        **** #include <math.h>
  23:main.c        **** #include <string.h>
  24:main.c        **** #include "project.h"
  25:main.c        **** #include "FreeRTOS.h"
  26:main.c        **** #include "task.h"
  27:main.c        **** #include "timers.h"
  28:main.c        **** #include "queue.h"
  29:main.c        **** #include "semphr.h"
  30:main.c        **** 
ARM GAS  C:\Users\kuria\AppData\Local\Temp\ccaKePAj.s 			page 2


  31:main.c        **** extern void FreeRTOS_Start();
  32:main.c        **** 
  33:main.c        **** static QueueHandle_t adcQueue;
  34:main.c        **** 
  35:main.c        **** typedef struct {
  36:main.c        ****     uint16 index;     // sample index
  37:main.c        ****     uint16 sample;    // 12-bit ADC sample (dummy)
  38:main.c        **** } adc_msg_t;
  39:main.c        **** 
  40:main.c        **** 
  41:main.c        **** void adc_task()
  42:main.c        **** {
  28              		.loc 1 42 0
  29              		.cfi_startproc
  30              		@ args = 0, pretend = 0, frame = 8
  31              		@ frame_needed = 0, uses_anonymous_args = 0
  32 0000 10B5     		push	{r4, lr}
  33              		.cfi_def_cfa_offset 8
  34              		.cfi_offset 4, -8
  35              		.cfi_offset 14, -4
  36 0002 82B0     		sub	sp, sp, #8
  37              		.cfi_def_cfa_offset 16
  38              	.LVL0:
  43:main.c        ****     adc_msg_t msg_adc;
  44:main.c        ****     uint16 counter=0;
  39              		.loc 1 44 0
  40 0004 0024     		movs	r4, #0
  41              	.LVL1:
  42              	.L2:
  45:main.c        ****     
  46:main.c        ****     while(1)
  47:main.c        ****     {
  48:main.c        ****         msg_adc.index = counter; counter++;
  43              		.loc 1 48 0 discriminator 1
  44 0006 ADF80440 		strh	r4, [sp, #4]	@ movhi
  45 000a 0134     		adds	r4, r4, #1
  46              	.LVL2:
  47 000c A4B2     		uxth	r4, r4
  48              	.LVL3:
  49:main.c        ****         msg_adc.sample = (uint16_t)(rand() & 0x0FFF);
  49              		.loc 1 49 0 discriminator 1
  50 000e FFF7FEFF 		bl	rand
  51              	.LVL4:
  52 0012 C0F30B00 		ubfx	r0, r0, #0, #12
  53 0016 ADF80600 		strh	r0, [sp, #6]	@ movhi
  50:main.c        **** 
  51:main.c        ****                 
  52:main.c        ****         xQueueSend(adcQueue, &msg_adc, portMAX_DELAY);
  54              		.loc 1 52 0 discriminator 1
  55 001a 0023     		movs	r3, #0
  56 001c 4FF0FF32 		mov	r2, #-1
  57 0020 01A9     		add	r1, sp, #4
  58 0022 0448     		ldr	r0, .L4
  59 0024 0068     		ldr	r0, [r0]
  60 0026 FFF7FEFF 		bl	xQueueGenericSend
  61              	.LVL5:
  53:main.c        ****         
ARM GAS  C:\Users\kuria\AppData\Local\Temp\ccaKePAj.s 			page 3


  54:main.c        ****         vTaskDelay(pdMS_TO_TICKS(100));     
  62              		.loc 1 54 0 discriminator 1
  63 002a 6420     		movs	r0, #100
  64 002c FFF7FEFF 		bl	vTaskDelay
  65              	.LVL6:
  66 0030 E9E7     		b	.L2
  67              	.L5:
  68 0032 00BF     		.align	2
  69              	.L4:
  70 0034 00000000 		.word	.LANCHOR0
  71              		.cfi_endproc
  72              	.LFE69:
  73              		.size	adc_task, .-adc_task
  74              		.section	.text.uart_task,"ax",%progbits
  75              		.align	2
  76              		.global	uart_task
  77              		.thumb
  78              		.thumb_func
  79              		.type	uart_task, %function
  80              	uart_task:
  81              	.LFB70:
  55:main.c        ****     }
  56:main.c        **** }
  57:main.c        **** 
  58:main.c        **** void uart_task()
  59:main.c        **** {
  82              		.loc 1 59 0
  83              		.cfi_startproc
  84              		@ args = 0, pretend = 0, frame = 104
  85              		@ frame_needed = 0, uses_anonymous_args = 0
  86 0000 00B5     		push	{lr}
  87              		.cfi_def_cfa_offset 4
  88              		.cfi_offset 14, -4
  89 0002 9BB0     		sub	sp, sp, #108
  90              		.cfi_def_cfa_offset 112
  91              	.L8:
  92              	.LBB2:
  60:main.c        ****     while(1)
  61:main.c        ****     {
  62:main.c        ****         adc_msg_t msg_rcv;
  63:main.c        ****         char str[100];
  64:main.c        **** 
  65:main.c        ****         if (xQueueReceive(adcQueue, &msg_rcv, portMAX_DELAY) == pdTRUE)
  93              		.loc 1 65 0
  94 0004 4FF0FF32 		mov	r2, #-1
  95 0008 6946     		mov	r1, sp
  96 000a 0A4B     		ldr	r3, .L10
  97 000c 1868     		ldr	r0, [r3]
  98 000e FFF7FEFF 		bl	xQueueReceive
  99              	.LVL7:
 100 0012 0128     		cmp	r0, #1
 101 0014 0AD1     		bne	.L7
  66:main.c        ****         {
  67:main.c        ****             sprintf(str, "ADC %d %d\r\n", msg_rcv.index, msg_rcv.sample);
 102              		.loc 1 67 0
 103 0016 BDF80230 		ldrh	r3, [sp, #2]
 104 001a BDF80020 		ldrh	r2, [sp]
ARM GAS  C:\Users\kuria\AppData\Local\Temp\ccaKePAj.s 			page 4


 105 001e 0649     		ldr	r1, .L10+4
 106 0020 01A8     		add	r0, sp, #4
 107 0022 FFF7FEFF 		bl	sprintf
 108              	.LVL8:
  68:main.c        ****             UART_PutString(str);  
 109              		.loc 1 68 0
 110 0026 01A8     		add	r0, sp, #4
 111 0028 FFF7FEFF 		bl	UART_PutString
 112              	.LVL9:
 113              	.L7:
  69:main.c        ****         }         
  70:main.c        ****         
  71:main.c        ****         vTaskDelay(pdMS_TO_TICKS(100)); 
 114              		.loc 1 71 0
 115 002c 6420     		movs	r0, #100
 116 002e FFF7FEFF 		bl	vTaskDelay
 117              	.LVL10:
 118              	.LBE2:
  72:main.c        ****     }    
 119              		.loc 1 72 0
 120 0032 E7E7     		b	.L8
 121              	.L11:
 122              		.align	2
 123              	.L10:
 124 0034 00000000 		.word	.LANCHOR0
 125 0038 00000000 		.word	.LC0
 126              		.cfi_endproc
 127              	.LFE70:
 128              		.size	uart_task, .-uart_task
 129              		.section	.text.main,"ax",%progbits
 130              		.align	2
 131              		.global	main
 132              		.thumb
 133              		.thumb_func
 134              		.type	main, %function
 135              	main:
 136              	.LFB71:
  73:main.c        **** }
  74:main.c        **** 
  75:main.c        **** 
  76:main.c        **** int main(void)
  77:main.c        **** {
 137              		.loc 1 77 0
 138              		.cfi_startproc
 139              		@ Volatile: function does not return.
 140              		@ args = 0, pretend = 0, frame = 0
 141              		@ frame_needed = 0, uses_anonymous_args = 0
 142 0000 00B5     		push	{lr}
 143              		.cfi_def_cfa_offset 4
 144              		.cfi_offset 14, -4
 145 0002 83B0     		sub	sp, sp, #12
 146              		.cfi_def_cfa_offset 16
  78:main.c        ****     CyGlobalIntEnable;
 147              		.loc 1 78 0
 148              		.syntax unified
 149              	@ 78 "main.c" 1
 150 0004 62B6     		CPSIE   i
ARM GAS  C:\Users\kuria\AppData\Local\Temp\ccaKePAj.s 			page 5


 151              	@ 0 "" 2
  79:main.c        ****         
  80:main.c        ****     UART_Start();
 152              		.loc 1 80 0
 153              		.thumb
 154              		.syntax unified
 155 0006 FFF7FEFF 		bl	UART_Start
 156              	.LVL11:
  81:main.c        ****     UART_ClearTxBuffer();
 157              		.loc 1 81 0
 158 000a FFF7FEFF 		bl	UART_ClearTxBuffer
 159              	.LVL12:
  82:main.c        ****     
  83:main.c        ****     FreeRTOS_Start();
 160              		.loc 1 83 0
 161 000e FFF7FEFF 		bl	FreeRTOS_Start
 162              	.LVL13:
  84:main.c        ****     
  85:main.c        ****     /* Create queue to hold up to 32 adc_msg_t items */
  86:main.c        ****     adcQueue = xQueueCreate(32, sizeof(adc_msg_t));
 163              		.loc 1 86 0
 164 0012 0022     		movs	r2, #0
 165 0014 0421     		movs	r1, #4
 166 0016 2020     		movs	r0, #32
 167 0018 FFF7FEFF 		bl	xQueueGenericCreate
 168              	.LVL14:
 169 001c 0B4B     		ldr	r3, .L15
 170 001e 1860     		str	r0, [r3]
  87:main.c        ****     
  88:main.c        ****     xTaskCreate(adc_task, "ADC Task", 200, NULL, 5, NULL);
 171              		.loc 1 88 0
 172 0020 0024     		movs	r4, #0
 173 0022 0194     		str	r4, [sp, #4]
 174 0024 0525     		movs	r5, #5
 175 0026 0095     		str	r5, [sp]
 176 0028 2346     		mov	r3, r4
 177 002a C822     		movs	r2, #200
 178 002c 0849     		ldr	r1, .L15+4
 179 002e 0948     		ldr	r0, .L15+8
 180 0030 FFF7FEFF 		bl	xTaskCreate
 181              	.LVL15:
  89:main.c        ****     xTaskCreate(uart_task, "UART_Task", 200, NULL, 5, NULL);
 182              		.loc 1 89 0
 183 0034 0194     		str	r4, [sp, #4]
 184 0036 0095     		str	r5, [sp]
 185 0038 2346     		mov	r3, r4
 186 003a C822     		movs	r2, #200
 187 003c 0649     		ldr	r1, .L15+12
 188 003e 0748     		ldr	r0, .L15+16
 189 0040 FFF7FEFF 		bl	xTaskCreate
 190              	.LVL16:
  90:main.c        ****     
  91:main.c        ****     vTaskStartScheduler();
 191              		.loc 1 91 0
 192 0044 FFF7FEFF 		bl	vTaskStartScheduler
 193              	.LVL17:
 194              	.L13:
ARM GAS  C:\Users\kuria\AppData\Local\Temp\ccaKePAj.s 			page 6


 195 0048 FEE7     		b	.L13
 196              	.L16:
 197 004a 00BF     		.align	2
 198              	.L15:
 199 004c 00000000 		.word	.LANCHOR0
 200 0050 0C000000 		.word	.LC1
 201 0054 00000000 		.word	adc_task
 202 0058 18000000 		.word	.LC2
 203 005c 00000000 		.word	uart_task
 204              		.cfi_endproc
 205              	.LFE71:
 206              		.size	main, .-main
 207              		.section	.rodata.str1.4,"aMS",%progbits,1
 208              		.align	2
 209              	.LC0:
 210 0000 41444320 		.ascii	"ADC %d %d\015\012\000"
 210      25642025 
 210      640D0A00 
 211              	.LC1:
 212 000c 41444320 		.ascii	"ADC Task\000"
 212      5461736B 
 212      00
 213 0015 000000   		.space	3
 214              	.LC2:
 215 0018 55415254 		.ascii	"UART_Task\000"
 215      5F546173 
 215      6B00
 216              		.bss
 217              		.align	2
 218              		.set	.LANCHOR0,. + 0
 219              		.type	adcQueue, %object
 220              		.size	adcQueue, 4
 221              	adcQueue:
 222 0000 00000000 		.space	4
 223              		.text
 224              	.Letext0:
 225              		.file 2 "c:\\program files (x86)\\cypress\\psoc creator\\4.4\\psoc creator\\import\\gnu\\arm\\5.4.
 226              		.file 3 "c:\\program files (x86)\\cypress\\psoc creator\\4.4\\psoc creator\\import\\gnu\\arm\\5.4.
 227              		.file 4 "Generated_Source\\PSoC5/cytypes.h"
 228              		.file 5 "..\\FreeRTOS\\Source\\portable\\GCC\\ARM_CM3/portmacro.h"
 229              		.file 6 "..\\FreeRTOS\\Source\\include/queue.h"
 230              		.file 7 "c:\\program files (x86)\\cypress\\psoc creator\\4.4\\psoc creator\\import\\gnu\\arm\\5.4.
 231              		.file 8 "..\\FreeRTOS\\Source\\include/task.h"
 232              		.file 9 "c:\\program files (x86)\\cypress\\psoc creator\\4.4\\psoc creator\\import\\gnu\\arm\\5.4.
 233              		.file 10 "Generated_Source\\PSoC5/UART.h"
 234              		.file 11 "Generated_Source\\PSoC5/core_cm3.h"