ARM GAS  C:\Users\kuria\AppData\Local\Temp\ccz9Hudy.s 			page 1


   1              		.syntax unified
   2              		.cpu cortex-m3
   3              		.fpu softvfp
   4              		.eabi_attribute 20, 1
   5              		.eabi_attribute 21, 1
   6              		.eabi_attribute 23, 3
   7              		.eabi_attribute 24, 1
   8              		.eabi_attribute 25, 1
   9              		.eabi_attribute 26, 1
  10              		.eabi_attribute 30, 1
  11              		.eabi_attribute 34, 1
  12              		.eabi_attribute 18, 4
  13              		.thumb
  14              		.syntax unified
  15              		.file	"main.c"
  16              		.text
  17              	.Ltext0:
  18              		.cfi_sections	.debug_frame
  19              		.section	.text.led_task,"ax",%progbits
  20              		.align	2
  21              		.global	led_task
  22              		.thumb
  23              		.thumb_func
  24              		.type	led_task, %function
  25              	led_task:
  26              	.LFB69:
  27              		.file 1 "main.c"
   1:main.c        **** /*
   2:main.c        **** 
   3:main.c        **** */
   4:main.c        **** 
   5:main.c        **** #include <stdio.h>
   6:main.c        **** #include <stdlib.h>
   7:main.c        **** #include <math.h>
   8:main.c        **** #include <string.h>
   9:main.c        **** #include "project.h"
  10:main.c        **** #include "FreeRTOS.h"
  11:main.c        **** #include "task.h"
  12:main.c        **** #include "timers.h"
  13:main.c        **** #include "queue.h"
  14:main.c        **** #include "semphr.h"
  15:main.c        **** 
  16:main.c        **** extern void FreeRTOS_Start();
  17:main.c        **** 
  18:main.c        **** static SemaphoreHandle_t uart_mutex = NULL; /* mutex to protect UART */
  19:main.c        **** 
  20:main.c        **** void led_task()
  21:main.c        **** {
  28              		.loc 1 21 0
  29              		.cfi_startproc
  30              		@ args = 0, pretend = 0, frame = 56
  31              		@ frame_needed = 0, uses_anonymous_args = 0
  32 0000 10B5     		push	{r4, lr}
  33              		.cfi_def_cfa_offset 8
  34              		.cfi_offset 4, -8
  35              		.cfi_offset 14, -4
  36 0002 8EB0     		sub	sp, sp, #56
ARM GAS  C:\Users\kuria\AppData\Local\Temp\ccz9Hudy.s 			page 2


  37              		.cfi_def_cfa_offset 64
  38              	.LVL0:
  22:main.c        ****     char msg[50];
  23:main.c        ****     uint16 led_count = 1;
  39              		.loc 1 23 0
  40 0004 0124     		movs	r4, #1
  41              	.LVL1:
  42              	.L3:
  43              	.LBB2:
  24:main.c        **** 
  25:main.c        ****     while(1)
  26:main.c        ****     {   
  27:main.c        ****         uint8 led_state = !led_Read();  
  44              		.loc 1 27 0
  45 0006 FFF7FEFF 		bl	led_Read
  46              	.LVL2:
  28:main.c        ****         led_Write(led_state);
  47              		.loc 1 28 0
  48 000a B0FA80F0 		clz	r0, r0
  49              	.LVL3:
  50 000e 4009     		lsrs	r0, r0, #5
  51 0010 FFF7FEFF 		bl	led_Write
  52              	.LVL4:
  29:main.c        ****         
  30:main.c        ****         if (xSemaphoreTake(uart_mutex, pdMS_TO_TICKS(100)) == pdTRUE)
  53              		.loc 1 30 0
  54 0014 6421     		movs	r1, #100
  55 0016 0E4B     		ldr	r3, .L5
  56 0018 1868     		ldr	r0, [r3]
  57 001a FFF7FEFF 		bl	xQueueSemaphoreTake
  58              	.LVL5:
  59 001e 0128     		cmp	r0, #1
  60 0020 0ED1     		bne	.L2
  31:main.c        ****         {
  32:main.c        ****             sprintf(msg, "LED toggled %d\r\n", led_count);
  61              		.loc 1 32 0
  62 0022 2246     		mov	r2, r4
  63 0024 0B49     		ldr	r1, .L5+4
  64 0026 01A8     		add	r0, sp, #4
  65 0028 FFF7FEFF 		bl	sprintf
  66              	.LVL6:
  33:main.c        ****             UART_PutString(msg);
  67              		.loc 1 33 0
  68 002c 01A8     		add	r0, sp, #4
  69 002e FFF7FEFF 		bl	UART_PutString
  70              	.LVL7:
  34:main.c        ****             xSemaphoreGive(uart_mutex);
  71              		.loc 1 34 0
  72 0032 0023     		movs	r3, #0
  73 0034 1A46     		mov	r2, r3
  74 0036 1946     		mov	r1, r3
  75 0038 0548     		ldr	r0, .L5
  76 003a 0068     		ldr	r0, [r0]
  77 003c FFF7FEFF 		bl	xQueueGenericSend
  78              	.LVL8:
  79              	.L2:
  35:main.c        ****         }
ARM GAS  C:\Users\kuria\AppData\Local\Temp\ccz9Hudy.s 			page 3


  36:main.c        ****         
  37:main.c        ****         vTaskDelay(pdMS_TO_TICKS(500));
  80              		.loc 1 37 0
  81 0040 4FF4FA70 		mov	r0, #500
  82 0044 FFF7FEFF 		bl	vTaskDelay
  83              	.LVL9:
  38:main.c        ****         led_count++;
  84              		.loc 1 38 0
  85 0048 0134     		adds	r4, r4, #1
  86              	.LVL10:
  87 004a A4B2     		uxth	r4, r4
  88              	.LVL11:
  89              	.LBE2:
  39:main.c        ****     }
  90              		.loc 1 39 0
  91 004c DBE7     		b	.L3
  92              	.L6:
  93 004e 00BF     		.align	2
  94              	.L5:
  95 0050 00000000 		.word	.LANCHOR0
  96 0054 00000000 		.word	.LC0
  97              		.cfi_endproc
  98              	.LFE69:
  99              		.size	led_task, .-led_task
 100              		.section	.text.uart_task,"ax",%progbits
 101              		.align	2
 102              		.global	uart_task
 103              		.thumb
 104              		.thumb_func
 105              		.type	uart_task, %function
 106              	uart_task:
 107              	.LFB70:
  40:main.c        **** }
  41:main.c        **** 
  42:main.c        **** void uart_task()
  43:main.c        **** {
 108              		.loc 1 43 0
 109              		.cfi_startproc
 110              		@ args = 0, pretend = 0, frame = 56
 111              		@ frame_needed = 0, uses_anonymous_args = 0
 112 0000 10B5     		push	{r4, lr}
 113              		.cfi_def_cfa_offset 8
 114              		.cfi_offset 4, -8
 115              		.cfi_offset 14, -4
 116 0002 8EB0     		sub	sp, sp, #56
 117              		.cfi_def_cfa_offset 64
 118              	.LVL12:
  44:main.c        ****     uint16 counter = 1;    
 119              		.loc 1 44 0
 120 0004 0124     		movs	r4, #1
 121              	.LVL13:
 122              	.L9:
  45:main.c        ****     char msg[50];            
  46:main.c        **** 
  47:main.c        ****     while (1)
  48:main.c        ****     {
  49:main.c        ****         
ARM GAS  C:\Users\kuria\AppData\Local\Temp\ccz9Hudy.s 			page 4


  50:main.c        ****         
  51:main.c        ****         if (xSemaphoreTake(uart_mutex, pdMS_TO_TICKS(100)) == pdTRUE)
 123              		.loc 1 51 0
 124 0006 6421     		movs	r1, #100
 125 0008 0D4B     		ldr	r3, .L11
 126 000a 1868     		ldr	r0, [r3]
 127 000c FFF7FEFF 		bl	xQueueSemaphoreTake
 128              	.LVL14:
 129 0010 0128     		cmp	r0, #1
 130 0012 0ED1     		bne	.L8
  52:main.c        ****         {
  53:main.c        ****             sprintf(msg, "Live %d\r\n", counter);
 131              		.loc 1 53 0
 132 0014 2246     		mov	r2, r4
 133 0016 0B49     		ldr	r1, .L11+4
 134 0018 01A8     		add	r0, sp, #4
 135 001a FFF7FEFF 		bl	sprintf
 136              	.LVL15:
  54:main.c        ****             UART_PutString(msg);  
 137              		.loc 1 54 0
 138 001e 01A8     		add	r0, sp, #4
 139 0020 FFF7FEFF 		bl	UART_PutString
 140              	.LVL16:
  55:main.c        ****             xSemaphoreGive(uart_mutex);
 141              		.loc 1 55 0
 142 0024 0023     		movs	r3, #0
 143 0026 1A46     		mov	r2, r3
 144 0028 1946     		mov	r1, r3
 145 002a 0548     		ldr	r0, .L11
 146 002c 0068     		ldr	r0, [r0]
 147 002e FFF7FEFF 		bl	xQueueGenericSend
 148              	.LVL17:
 149              	.L8:
  56:main.c        ****         }
  57:main.c        ****         
  58:main.c        ****         counter++; 
 150              		.loc 1 58 0
 151 0032 0134     		adds	r4, r4, #1
 152              	.LVL18:
 153 0034 A4B2     		uxth	r4, r4
 154              	.LVL19:
  59:main.c        ****         vTaskDelay(pdMS_TO_TICKS(1000)); 
 155              		.loc 1 59 0
 156 0036 4FF47A70 		mov	r0, #1000
 157 003a FFF7FEFF 		bl	vTaskDelay
 158              	.LVL20:
  60:main.c        ****     }
 159              		.loc 1 60 0
 160 003e E2E7     		b	.L9
 161              	.L12:
 162              		.align	2
 163              	.L11:
 164 0040 00000000 		.word	.LANCHOR0
 165 0044 14000000 		.word	.LC1
 166              		.cfi_endproc
 167              	.LFE70:
 168              		.size	uart_task, .-uart_task
ARM GAS  C:\Users\kuria\AppData\Local\Temp\ccz9Hudy.s 			page 5


 169              		.section	.text.main,"ax",%progbits
 170              		.align	2
 171              		.global	main
 172              		.thumb
 173              		.thumb_func
 174              		.type	main, %function
 175              	main:
 176              	.LFB71:
  61:main.c        **** }
  62:main.c        **** 
  63:main.c        **** 
  64:main.c        **** int main(void)
  65:main.c        **** {
 177              		.loc 1 65 0
 178              		.cfi_startproc
 179              		@ Volatile: function does not return.
 180              		@ args = 0, pretend = 0, frame = 0
 181              		@ frame_needed = 0, uses_anonymous_args = 0
 182 0000 00B5     		push	{lr}
 183              		.cfi_def_cfa_offset 4
 184              		.cfi_offset 14, -4
 185 0002 83B0     		sub	sp, sp, #12
 186              		.cfi_def_cfa_offset 16
  66:main.c        ****     CyGlobalIntEnable;
 187              		.loc 1 66 0
 188              		.syntax unified
 189              	@ 66 "main.c" 1
 190 0004 62B6     		CPSIE   i
 191              	@ 0 "" 2
  67:main.c        ****         
  68:main.c        ****     UART_Start();
 192              		.loc 1 68 0
 193              		.thumb
 194              		.syntax unified
 195 0006 FFF7FEFF 		bl	UART_Start
 196              	.LVL21:
  69:main.c        ****     UART_ClearTxBuffer();
 197              		.loc 1 69 0
 198 000a FFF7FEFF 		bl	UART_ClearTxBuffer
 199              	.LVL22:
  70:main.c        ****     
  71:main.c        ****     FreeRTOS_Start();
 200              		.loc 1 71 0
 201 000e FFF7FEFF 		bl	FreeRTOS_Start
 202              	.LVL23:
  72:main.c        ****     
  73:main.c        ****     uart_mutex = xSemaphoreCreateMutex();
 203              		.loc 1 73 0
 204 0012 0120     		movs	r0, #1
 205 0014 FFF7FEFF 		bl	xQueueCreateMutex
 206              	.LVL24:
 207 0018 0B4B     		ldr	r3, .L16
 208 001a 1860     		str	r0, [r3]
  74:main.c        ****     
  75:main.c        ****     xTaskCreate(led_task, "LED_Task", 200, NULL, 5, NULL);
 209              		.loc 1 75 0
 210 001c 0024     		movs	r4, #0
ARM GAS  C:\Users\kuria\AppData\Local\Temp\ccz9Hudy.s 			page 6


 211 001e 0194     		str	r4, [sp, #4]
 212 0020 0525     		movs	r5, #5
 213 0022 0095     		str	r5, [sp]
 214 0024 2346     		mov	r3, r4
 215 0026 C822     		movs	r2, #200
 216 0028 0849     		ldr	r1, .L16+4
 217 002a 0948     		ldr	r0, .L16+8
 218 002c FFF7FEFF 		bl	xTaskCreate
 219              	.LVL25:
  76:main.c        ****     xTaskCreate(uart_task, "UART_Task", 200, NULL, 5, NULL);
 220              		.loc 1 76 0
 221 0030 0194     		str	r4, [sp, #4]
 222 0032 0095     		str	r5, [sp]
 223 0034 2346     		mov	r3, r4
 224 0036 C822     		movs	r2, #200
 225 0038 0649     		ldr	r1, .L16+12
 226 003a 0748     		ldr	r0, .L16+16
 227 003c FFF7FEFF 		bl	xTaskCreate
 228              	.LVL26:
  77:main.c        ****     
  78:main.c        ****     vTaskStartScheduler();
 229              		.loc 1 78 0
 230 0040 FFF7FEFF 		bl	vTaskStartScheduler
 231              	.LVL27:
 232              	.L14:
 233 0044 FEE7     		b	.L14
 234              	.L17:
 235 0046 00BF     		.align	2
 236              	.L16:
 237 0048 00000000 		.word	.LANCHOR0
 238 004c 20000000 		.word	.LC2
 239 0050 00000000 		.word	led_task
 240 0054 2C000000 		.word	.LC3
 241 0058 00000000 		.word	uart_task
 242              		.cfi_endproc
 243              	.LFE71:
 244              		.size	main, .-main
 245              		.section	.rodata.str1.4,"aMS",%progbits,1
 246              		.align	2
 247              	.LC0:
 248 0000 4C454420 		.ascii	"LED toggled %d\015\012\000"
 248      746F6767 
 248      6C656420 
 248      25640D0A 
 248      00
 249 0011 000000   		.space	3
 250              	.LC1:
 251 0014 4C697665 		.ascii	"Live %d\015\012\000"
 251      2025640D 
 251      0A00
 252 001e 0000     		.space	2
 253              	.LC2:
 254 0020 4C45445F 		.ascii	"LED_Task\000"
 254      5461736B 
 254      00
 255 0029 000000   		.space	3
 256              	.LC3:
ARM GAS  C:\Users\kuria\AppData\Local\Temp\ccz9Hudy.s 			page 7


 257 002c 55415254 		.ascii	"UART_Task\000"
 257      5F546173 
 257      6B00
 258              		.bss
 259              		.align	2
 260              		.set	.LANCHOR0,. + 0
 261              		.type	uart_mutex, %object
 262              		.size	uart_mutex, 4
 263              	uart_mutex:
 264 0000 00000000 		.space	4
 265              		.text
 266              	.Letext0:
 267              		.file 2 "c:\\program files (x86)\\cypress\\psoc creator\\4.4\\psoc creator\\import\\gnu\\arm\\5.4.
 268              		.file 3 "c:\\program files (x86)\\cypress\\psoc creator\\4.4\\psoc creator\\import\\gnu\\arm\\5.4.
 269              		.file 4 "Generated_Source\\PSoC5/cytypes.h"
 270              		.file 5 "..\\FreeRTOS\\Source\\portable\\GCC\\ARM_CM3/portmacro.h"
 271              		.file 6 "..\\FreeRTOS\\Source\\include/queue.h"
 272              		.file 7 "..\\FreeRTOS\\Source\\include/semphr.h"
 273              		.file 8 "Generated_Source\\PSoC5/led.h"
 274              		.file 9 "c:\\program files (x86)\\cypress\\psoc creator\\4.4\\psoc creator\\import\\gnu\\arm\\5.4.
 275              		.file 10 "Generated_Source\\PSoC5/UART.h"
 276              		.file 11 "..\\FreeRTOS\\Source\\include/task.h"
 277              		.file 12 "Generated_Source\\PSoC5/core_cm3.h"