ARM GAS  C:\Users\kuria\AppData\Local\Temp\ccezxpkq.s 			page 1


   1              		.syntax unified
   2              		.cpu cortex-m3
   3              		.fpu softvfp
   4              		.eabi_attribute 20, 1
   5              		.eabi_attribute 21, 1
   6              		.eabi_attribute 23, 3
   7              		.eabi_attribute 24, 1
   8              		.eabi_attribute 25, 1
   9              		.eabi_attribute 26, 1
  10              		.eabi_attribute 30, 1
  11              		.eabi_attribute 34, 1
  12              		.eabi_attribute 18, 4
  13              		.thumb
  14              		.syntax unified
  15              		.file	"main.c"
  16              		.text
  17              	.Ltext0:
  18              		.cfi_sections	.debug_frame
  19              		.section	.text.switch_isr_code,"ax",%progbits
  20              		.align	2
  21              		.global	switch_isr_code
  22              		.thumb
  23              		.thumb_func
  24              		.type	switch_isr_code, %function
  25              	switch_isr_code:
  26              	.LFB69:
  27              		.file 1 "main.c"
   1:main.c        **** /*
   2:main.c        ****  ============================================================================
   3:main.c        ****  Name        : FreeRTOS Project
   4:main.c        ****  Author      : Dr. Kurian Polachan
   5:main.c        ****  Description : Example project demonstrating task synchronization using a binary
   6:main.c        ****                semaphore in FreeRTOS. The UART task produces a signal once every
   7:main.c        ****                second by giving a semaphore, while the LED task waits (takes)
   8:main.c        ****                that semaphore to toggle an LED. This ensures one LED toggle per
   9:main.c        ****                "Live n" message, illustrating task-to-task synchronization.
  10:main.c        **** 
  11:main.c        ****  Acknowledgment:
  12:main.c        ****  This code builds upon and makes use of the structure, conventions, and examples
  13:main.c        ****  from the open-source project:
  14:main.c        ****      https://github.com/Karthik23tala/Embedded-C-Lab-Book
  15:main.c        ****  maintained by Karthik T. and contributors.
  16:main.c        **** 
  17:main.c        ****  License     : For educational and research use. Attribution required.
  18:main.c        ****  ============================================================================
  19:main.c        **** */
  20:main.c        **** 
  21:main.c        **** #include <stdio.h>
  22:main.c        **** #include <stdlib.h>
  23:main.c        **** #include <math.h>
  24:main.c        **** #include <string.h>
  25:main.c        **** #include "project.h"
  26:main.c        **** #include "FreeRTOS.h"
  27:main.c        **** #include "task.h"
  28:main.c        **** #include "timers.h"
  29:main.c        **** #include "queue.h"
  30:main.c        **** #include "semphr.h"
ARM GAS  C:\Users\kuria\AppData\Local\Temp\ccezxpkq.s 			page 2


  31:main.c        **** 
  32:main.c        **** extern void FreeRTOS_Start();
  33:main.c        **** 
  34:main.c        **** static SemaphoreHandle_t xButtonSemaphore = NULL;  // Binary semaphore handle
  35:main.c        **** 
  36:main.c        **** 
  37:main.c        **** CY_ISR (switch_isr_code)
  38:main.c        **** {
  28              		.loc 1 38 0
  29              		.cfi_startproc
  30              		@ args = 0, pretend = 0, frame = 8
  31              		@ frame_needed = 0, uses_anonymous_args = 0
  32 0000 00B5     		push	{lr}
  33              		.cfi_def_cfa_offset 4
  34              		.cfi_offset 14, -4
  35 0002 83B0     		sub	sp, sp, #12
  36              		.cfi_def_cfa_offset 16
  39:main.c        ****     BaseType_t xHigherPriorityTaskWoken = pdFALSE;   
  37              		.loc 1 39 0
  38 0004 02A9     		add	r1, sp, #8
  39 0006 0023     		movs	r3, #0
  40 0008 41F8043D 		str	r3, [r1, #-4]!
  40:main.c        ****     
  41:main.c        ****     // Give semaphore from ISR
  42:main.c        ****     xSemaphoreGiveFromISR(xButtonSemaphore, &xHigherPriorityTaskWoken);
  41              		.loc 1 42 0
  42 000c 094B     		ldr	r3, .L4
  43 000e 1868     		ldr	r0, [r3]
  44 0010 FFF7FEFF 		bl	xQueueGiveFromISR
  45              	.LVL0:
  43:main.c        ****     
  44:main.c        ****     // Request context switch if needed
  45:main.c        ****     portYIELD_FROM_ISR(xHigherPriorityTaskWoken);
  46              		.loc 1 45 0
  47 0014 019B     		ldr	r3, [sp, #4]
  48 0016 3BB1     		cbz	r3, .L2
  49              		.loc 1 45 0 is_stmt 0 discriminator 1
  50 0018 4FF08052 		mov	r2, #268435456
  51 001c 064B     		ldr	r3, .L4+4
  52 001e 1A60     		str	r2, [r3]
  53              		.syntax unified
  54              	@ 45 "main.c" 1
  55 0020 BFF34F8F 		dsb
  56              	@ 0 "" 2
  57              	@ 45 "main.c" 1
  58 0024 BFF36F8F 		isb
  59              	@ 0 "" 2
  60              		.thumb
  61              		.syntax unified
  62              	.L2:
  46:main.c        ****     
  47:main.c        ****     Pin_SW_ClearInterrupt();
  63              		.loc 1 47 0 is_stmt 1
  64 0028 FFF7FEFF 		bl	Pin_SW_ClearInterrupt
  65              	.LVL1:
  48:main.c        **** }
  66              		.loc 1 48 0
ARM GAS  C:\Users\kuria\AppData\Local\Temp\ccezxpkq.s 			page 3


  67 002c 03B0     		add	sp, sp, #12
  68              		.cfi_def_cfa_offset 4
  69              		@ sp needed
  70 002e 5DF804FB 		ldr	pc, [sp], #4
  71              	.L5:
  72 0032 00BF     		.align	2
  73              	.L4:
  74 0034 00000000 		.word	.LANCHOR0
  75 0038 04ED00E0 		.word	-536810236
  76              		.cfi_endproc
  77              	.LFE69:
  78              		.size	switch_isr_code, .-switch_isr_code
  79              		.section	.text.led_task,"ax",%progbits
  80              		.align	2
  81              		.global	led_task
  82              		.thumb
  83              		.thumb_func
  84              		.type	led_task, %function
  85              	led_task:
  86              	.LFB70:
  49:main.c        **** 
  50:main.c        **** void led_task()
  51:main.c        **** {
  87              		.loc 1 51 0
  88              		.cfi_startproc
  89              		@ args = 0, pretend = 0, frame = 0
  90              		@ frame_needed = 0, uses_anonymous_args = 0
  91 0000 08B5     		push	{r3, lr}
  92              		.cfi_def_cfa_offset 8
  93              		.cfi_offset 3, -8
  94              		.cfi_offset 14, -4
  95              	.L7:
  52:main.c        ****     while(1)
  53:main.c        ****     {   
  54:main.c        ****         /* Block indefinitely until semaphore is given */
  55:main.c        ****         if (xSemaphoreTake(xButtonSemaphore, portMAX_DELAY) == pdTRUE)
  96              		.loc 1 55 0
  97 0002 4FF0FF31 		mov	r1, #-1
  98 0006 074B     		ldr	r3, .L10
  99 0008 1868     		ldr	r0, [r3]
 100 000a FFF7FEFF 		bl	xQueueSemaphoreTake
 101              	.LVL2:
 102 000e 0128     		cmp	r0, #1
 103 0010 F7D1     		bne	.L7
 104              	.LBB2:
  56:main.c        ****         {
  57:main.c        ****             uint8 led_state = !led_Read();  
 105              		.loc 1 57 0
 106 0012 FFF7FEFF 		bl	led_Read
 107              	.LVL3:
  58:main.c        ****             led_Write(led_state);              
 108              		.loc 1 58 0
 109 0016 B0FA80F0 		clz	r0, r0
 110              	.LVL4:
 111 001a 4009     		lsrs	r0, r0, #5
 112 001c FFF7FEFF 		bl	led_Write
 113              	.LVL5:
ARM GAS  C:\Users\kuria\AppData\Local\Temp\ccezxpkq.s 			page 4


 114 0020 EFE7     		b	.L7
 115              	.L11:
 116 0022 00BF     		.align	2
 117              	.L10:
 118 0024 00000000 		.word	.LANCHOR0
 119              	.LBE2:
 120              		.cfi_endproc
 121              	.LFE70:
 122              		.size	led_task, .-led_task
 123              		.section	.text.main,"ax",%progbits
 124              		.align	2
 125              		.global	main
 126              		.thumb
 127              		.thumb_func
 128              		.type	main, %function
 129              	main:
 130              	.LFB71:
  59:main.c        ****         }        
  60:main.c        ****         
  61:main.c        ****     }
  62:main.c        **** }
  63:main.c        **** 
  64:main.c        **** 
  65:main.c        **** int main(void)
  66:main.c        **** {
 131              		.loc 1 66 0
 132              		.cfi_startproc
 133              		@ Volatile: function does not return.
 134              		@ args = 0, pretend = 0, frame = 0
 135              		@ frame_needed = 0, uses_anonymous_args = 0
 136 0000 00B5     		push	{lr}
 137              		.cfi_def_cfa_offset 4
 138              		.cfi_offset 14, -4
 139 0002 83B0     		sub	sp, sp, #12
 140              		.cfi_def_cfa_offset 16
  67:main.c        ****     CyGlobalIntEnable;    
 141              		.loc 1 67 0
 142              		.syntax unified
 143              	@ 67 "main.c" 1
 144 0004 62B6     		CPSIE   i
 145              	@ 0 "" 2
  68:main.c        ****        
  69:main.c        ****     isr_1_StartEx(switch_isr_code);
 146              		.loc 1 69 0
 147              		.thumb
 148              		.syntax unified
 149 0006 0C48     		ldr	r0, .L15
 150 0008 FFF7FEFF 		bl	isr_1_StartEx
 151              	.LVL6:
  70:main.c        **** 
  71:main.c        ****     FreeRTOS_Start();
 152              		.loc 1 71 0
 153 000c FFF7FEFF 		bl	FreeRTOS_Start
 154              	.LVL7:
  72:main.c        ****     
  73:main.c        ****     xButtonSemaphore = xSemaphoreCreateBinary();
 155              		.loc 1 73 0
ARM GAS  C:\Users\kuria\AppData\Local\Temp\ccezxpkq.s 			page 5


 156 0010 0322     		movs	r2, #3
 157 0012 0021     		movs	r1, #0
 158 0014 0120     		movs	r0, #1
 159 0016 FFF7FEFF 		bl	xQueueGenericCreate
 160              	.LVL8:
 161 001a 084B     		ldr	r3, .L15+4
 162 001c 1860     		str	r0, [r3]
  74:main.c        ****     
  75:main.c        ****     xTaskCreate(led_task, "LED_Task", 200, NULL, 5, NULL);  
 163              		.loc 1 75 0
 164 001e 0023     		movs	r3, #0
 165 0020 0193     		str	r3, [sp, #4]
 166 0022 0522     		movs	r2, #5
 167 0024 0092     		str	r2, [sp]
 168 0026 C822     		movs	r2, #200
 169 0028 0549     		ldr	r1, .L15+8
 170 002a 0648     		ldr	r0, .L15+12
 171 002c FFF7FEFF 		bl	xTaskCreate
 172              	.LVL9:
  76:main.c        ****     
  77:main.c        ****     vTaskStartScheduler();
 173              		.loc 1 77 0
 174 0030 FFF7FEFF 		bl	vTaskStartScheduler
 175              	.LVL10:
 176              	.L13:
 177 0034 FEE7     		b	.L13
 178              	.L16:
 179 0036 00BF     		.align	2
 180              	.L15:
 181 0038 00000000 		.word	switch_isr_code
 182 003c 00000000 		.word	.LANCHOR0
 183 0040 00000000 		.word	.LC0
 184 0044 00000000 		.word	led_task
 185              		.cfi_endproc
 186              	.LFE71:
 187              		.size	main, .-main
 188              		.section	.rodata.str1.4,"aMS",%progbits,1
 189              		.align	2
 190              	.LC0:
 191 0000 4C45445F 		.ascii	"LED_Task\000"
 191      5461736B 
 191      00
 192              		.bss
 193              		.align	2
 194              		.set	.LANCHOR0,. + 0
 195              		.type	xButtonSemaphore, %object
 196              		.size	xButtonSemaphore, 4
 197              	xButtonSemaphore:
 198 0000 00000000 		.space	4
 199              		.text
 200              	.Letext0:
 201              		.file 2 "c:\\program files (x86)\\cypress\\psoc creator\\4.4\\psoc creator\\import\\gnu\\arm\\5.4.
 202              		.file 3 "c:\\program files (x86)\\cypress\\psoc creator\\4.4\\psoc creator\\import\\gnu\\arm\\5.4.
 203              		.file 4 "Generated_Source\\PSoC5/cytypes.h"
 204              		.file 5 "..\\FreeRTOS\\Source\\portable\\GCC\\ARM_CM3/portmacro.h"
 205              		.file 6 "..\\FreeRTOS\\Source\\include/queue.h"
 206              		.file 7 "..\\FreeRTOS\\Source\\include/semphr.h"
ARM GAS  C:\Users\kuria\AppData\Local\Temp\ccezxpkq.s 			page 6


 207              		.file 8 "Generated_Source\\PSoC5/Pin_SW.h"
 208              		.file 9 "Generated_Source\\PSoC5/led.h"
 209              		.file 10 "Generated_Source\\PSoC5/isr_1.h"
 210              		.file 11 "..\\FreeRTOS\\Source\\include/task.h"
 211              		.file 12 "Generated_Source\\PSoC5/core_cm3.h"